target datalayout = "e-m:e-p270:32:32-p271:32:32-p272:64:64-i64:64-i128:128-f80:128-n8:16:32:64-S128"
target triple = "x86_64-pc-linux-gnu"

%struct.UNSP = type { ptr, ptr, i32, i32, i32, i32, ptr }

; Function Attrs: nounwind uwtable
define i32 @get_byte(ptr noundef %0) #0 {
  %2 = alloca i32, align 4
  %3 = alloca ptr, align 8
  %4 = alloca i32, align 4
  store ptr %0, ptr %3, align 8
  %5 = load ptr, ptr %3, align 8
  %6 = getelementptr inbounds %struct.UNSP, ptr %5, i32 0, i32 0
  %7 = load ptr, ptr %6, align 8
  %8 = load ptr, ptr %3, align 8
  %9 = getelementptr inbounds %struct.UNSP, ptr %8, i32 0, i32 1
  %10 = load ptr, ptr %9, align 8
  %11 = icmp uge ptr %7, %10
  br i1 %11, label %12, label %15

12:                                               ; preds = %1
  %13 = load ptr, ptr %3, align 8
  %14 = getelementptr inbounds %struct.UNSP, ptr %13, i32 0, i32 4
  store i32 1, ptr %14, align 8
  store i32 255, ptr %2, align 4
  br label %27

15:                                               ; preds = %1
  %16 = load ptr, ptr %3, align 8
  %17 = getelementptr inbounds %struct.UNSP, ptr %16, i32 0, i32 0
  %18 = load ptr, ptr %17, align 8
  %19 = load i8, ptr %18, align 1
  %20 = sext i8 %19 to i32
  store i32 %20, ptr %4, align 4
  %21 = load ptr, ptr %3, align 8
  %22 = getelementptr inbounds %struct.UNSP, ptr %21, i32 0, i32 0
  %23 = load ptr, ptr %22, align 8
  %24 = getelementptr inbounds i8, ptr %23, i32 1
  store ptr %24, ptr %22, align 8
  %25 = load i32, ptr %4, align 4
  %26 = and i32 %25, 255
  store i32 %26, ptr %2, align 4
  br label %27

27:                                               ; preds = %15, %12
  %28 = load i32, ptr %2, align 4
  ret i32 %28
}