; Function Attrs: mustprogress nofree norecurse nosync nounwind willreturn memory(read, argmem: readwrite, inaccessiblemem: none) uwtable
define i32 @get_byte(ptr nocapture noundef %0) local_unnamed_addr #3 {
  %2 = load ptr, ptr %0, align 8
  %3 = getelementptr inbounds i8, ptr %0, i64 8
  %4 = load ptr, ptr %3, align 8
  %.not = icmp ult ptr %2, %4
  br i1 %.not, label %7, label %5

5:                                                ; preds = %1
  %6 = getelementptr inbounds i8, ptr %0, i64 24
  store i32 1, ptr %6, align 8
  br label %11

7:                                                ; preds = %1
  %8 = load i8, ptr %2, align 1
  %9 = zext i8 %8 to i32
  %10 = getelementptr inbounds i8, ptr %2, i64 1
  store ptr %10, ptr %0, align 8
  br label %11

11:                                               ; preds = %7, %5
  %.0 = phi i32 [ 255, %5 ], [ %9, %7 ]
  ret i32 %.0
}